target datalayout = "e-m:e-p270:32:32-p271:32:32-p272:64:64-i64:64-i128:128-f80:128-n8:16:32:64-S128"
target triple = "x86_64-pc-linux-gnu"

%class.ComprDataIO = type <{ i8, [7 x i8], i64, ptr, i8, [7 x i8], i64, ptr, i64, ptr, i64, i64, i8, i8, i8, i8, [4 x i8], ptr, ptr, ptr, ptr, ptr, ptr, ptr, i32, i32, i8, i8, i8, [5 x i8], i64, i64, i64, i64, i64, i64, i64, %class.DataHash, %class.DataHash, %class.DataHash, i8, i8, [6 x i8] }>
%class.DataHash = type { i32, i32, ptr }

; Function Attrs: mustprogress nounwind uwtable
define void @_ZN11ComprDataIO4InitEv(ptr noundef nonnull align 8 dereferenceable(266) %0) #4 align 2 {
  %2 = alloca ptr, align 8
  store ptr %0, ptr %2, align 8
  %3 = load ptr, ptr %2, align 8
  %4 = getelementptr inbounds %class.ComprDataIO, ptr %3, i32 0, i32 0
  store i8 0, ptr %4, align 8
  %5 = getelementptr inbounds %class.ComprDataIO, ptr %3, i32 0, i32 4
  store i8 0, ptr %5, align 8
  %6 = getelementptr inbounds %class.ComprDataIO, ptr %3, i32 0, i32 10
  store i64 0, ptr %6, align 8
  %7 = getelementptr inbounds %class.ComprDataIO, ptr %3, i32 0, i32 11
  store i64 0, ptr %7, align 8
  %8 = getelementptr inbounds %class.ComprDataIO, ptr %3, i32 0, i32 12
  store i8 1, ptr %8, align 8
  %9 = getelementptr inbounds %class.ComprDataIO, ptr %3, i32 0, i32 13
  store i8 0, ptr %9, align 1
  %10 = getelementptr inbounds %class.ComprDataIO, ptr %3, i32 0, i32 14
  store i8 0, ptr %10, align 2
  %11 = getelementptr inbounds %class.ComprDataIO, ptr %3, i32 0, i32 15
  store i8 0, ptr %11, align 1
  %12 = getelementptr inbounds %class.ComprDataIO, ptr %3, i32 0, i32 26
  store i8 0, ptr %12, align 8
  %13 = getelementptr inbounds %class.ComprDataIO, ptr %3, i32 0, i32 27
  store i8 0, ptr %13, align 1
  %14 = getelementptr inbounds %class.ComprDataIO, ptr %3, i32 0, i32 28
  store i8 0, ptr %14, align 2
  %15 = getelementptr inbounds %class.ComprDataIO, ptr %3, i32 0, i32 17
  store ptr null, ptr %15, align 8
  %16 = getelementptr inbounds %class.ComprDataIO, ptr %3, i32 0, i32 18
  store ptr null, ptr %16, align 8
  %17 = getelementptr inbounds %class.ComprDataIO, ptr %3, i32 0, i32 9
  store ptr null, ptr %17, align 8
  %18 = getelementptr inbounds %class.ComprDataIO, ptr %3, i32 0, i32 8
  store i64 0, ptr %18, align 8
  %19 = getelementptr inbounds %class.ComprDataIO, ptr %3, i32 0, i32 19
  store ptr null, ptr %19, align 8
  %20 = getelementptr inbounds %class.ComprDataIO, ptr %3, i32 0, i32 40
  store i8 0, ptr %20, align 8
  %21 = getelementptr inbounds %class.ComprDataIO, ptr %3, i32 0, i32 41
  store i8 0, ptr %21, align 1
  %22 = getelementptr inbounds %class.ComprDataIO, ptr %3, i32 0, i32 33
  store i64 0, ptr %22, align 8
  %23 = getelementptr inbounds %class.ComprDataIO, ptr %3, i32 0, i32 32
  store i64 0, ptr %23, align 8
  %24 = getelementptr inbounds %class.ComprDataIO, ptr %3, i32 0, i32 31
  store i64 0, ptr %24, align 8
  %25 = getelementptr inbounds %class.ComprDataIO, ptr %3, i32 0, i32 30
  store i64 0, ptr %25, align 8
  %26 = getelementptr inbounds %class.ComprDataIO, ptr %3, i32 0, i32 24
  store i32 -1, ptr %26, align 8
  %27 = getelementptr inbounds %class.ComprDataIO, ptr %3, i32 0, i32 20
  store ptr null, ptr %27, align 8
  %28 = getelementptr inbounds %class.ComprDataIO, ptr %3, i32 0, i32 21
  store ptr null, ptr %28, align 8
  %29 = getelementptr inbounds %class.ComprDataIO, ptr %3, i32 0, i32 25
  store i32 0, ptr %29, align 4
  %30 = getelementptr inbounds %class.ComprDataIO, ptr %3, i32 0, i32 34
  store i64 0, ptr %30, align 8
  %31 = getelementptr inbounds %class.ComprDataIO, ptr %3, i32 0, i32 35
  store i64 0, ptr %31, align 8
  %32 = getelementptr inbounds %class.ComprDataIO, ptr %3, i32 0, i32 36
  store i64 0, ptr %32, align 8
  ret void
}

; Function Attrs: mustprogress uwtable
define void @_ZN11ComprDataIOC2Ev(ptr noundef nonnull align 8 dereferenceable(266) %0) unnamed_addr #0 align 2 personality ptr @__gxx_personality_v0 {
  %2 = alloca ptr, align 8
  %3 = alloca ptr, align 8
  %4 = alloca i32, align 4
  store ptr %0, ptr %2, align 8
  %5 = load ptr, ptr %2, align 8
  %6 = getelementptr inbounds %class.ComprDataIO, ptr %5, i32 0, i32 37
  call void @_ZN8DataHashC1Ev(ptr noundef nonnull align 8 dereferenceable(16) %6)
  %7 = getelementptr inbounds %class.ComprDataIO, ptr %5, i32 0, i32 38
  invoke void @_ZN8DataHashC1Ev(ptr noundef nonnull align 8 dereferenceable(16) %7)
          to label %8 unwind label %20

8:                                                ; preds = %1
  %9 = getelementptr inbounds %class.ComprDataIO, ptr %5, i32 0, i32 39
  invoke void @_ZN8DataHashC1Ev(ptr noundef nonnull align 8 dereferenceable(16) %9)
          to label %10 unwind label %24

10:                                               ; preds = %8
  %11 = invoke noalias noundef nonnull ptr @_Znwm(i64 noundef 2520) #8
          to label %12 unwind label %28

12:                                               ; preds = %10
  invoke void @_ZN9CryptDataC1Ev(ptr noundef nonnull align 8 dereferenceable(2516) %11)
          to label %13 unwind label %32

13:                                               ; preds = %12
  %14 = getelementptr inbounds %class.ComprDataIO, ptr %5, i32 0, i32 22
  store ptr %11, ptr %14, align 8
  %15 = invoke noalias noundef nonnull ptr @_Znwm(i64 noundef 2520) #8
          to label %16 unwind label %28

16:                                               ; preds = %13
  invoke void @_ZN9CryptDataC1Ev(ptr noundef nonnull align 8 dereferenceable(2516) %15)
          to label %17 unwind label %36

17:                                               ; preds = %16
  %18 = getelementptr inbounds %class.ComprDataIO, ptr %5, i32 0, i32 23
  store ptr %15, ptr %18, align 8
  invoke void @_ZN11ComprDataIO4InitEv(ptr noundef nonnull align 8 dereferenceable(266) %5)
          to label %19 unwind label %28

19:                                               ; preds = %17
  ret void

20:                                               ; preds = %1
  %21 = landingpad { ptr, i32 }
          cleanup
  %22 = extractvalue { ptr, i32 } %21, 0
  store ptr %22, ptr %3, align 8
  %23 = extractvalue { ptr, i32 } %21, 1
  store i32 %23, ptr %4, align 4
  br label %42

24:                                               ; preds = %8
  %25 = landingpad { ptr, i32 }
          cleanup
  %26 = extractvalue { ptr, i32 } %25, 0
  store ptr %26, ptr %3, align 8
  %27 = extractvalue { ptr, i32 } %25, 1
  store i32 %27, ptr %4, align 4
  br label %41

28:                                               ; preds = %17, %13, %10
  %29 = landingpad { ptr, i32 }
          cleanup
  %30 = extractvalue { ptr, i32 } %29, 0
  store ptr %30, ptr %3, align 8
  %31 = extractvalue { ptr, i32 } %29, 1
  store i32 %31, ptr %4, align 4
  br label %40

32:                                               ; preds = %12
  %33 = landingpad { ptr, i32 }
          cleanup
  %34 = extractvalue { ptr, i32 } %33, 0
  store ptr %34, ptr %3, align 8
  %35 = extractvalue { ptr, i32 } %33, 1
  store i32 %35, ptr %4, align 4
  call void @_ZdlPv(ptr noundef %11) #9
  br label %40

36:                                               ; preds = %16
  %37 = landingpad { ptr, i32 }
          cleanup
  %38 = extractvalue { ptr, i32 } %37, 0
  store ptr %38, ptr %3, align 8
  %39 = extractvalue { ptr, i32 } %37, 1
  store i32 %39, ptr %4, align 4
  call void @_ZdlPv(ptr noundef %15) #9
  br label %40

40:                                               ; preds = %36, %32, %28
  call void @_ZN8DataHashD1Ev(ptr noundef nonnull align 8 dereferenceable(16) %9) #10
  br label %41

41:                                               ; preds = %40, %24
  call void @_ZN8DataHashD1Ev(ptr noundef nonnull align 8 dereferenceable(16) %7) #10
  br label %42

42:                                               ; preds = %41, %20
  call void @_ZN8DataHashD1Ev(ptr noundef nonnull align 8 dereferenceable(16) %6) #10
  br label %43

43:                                               ; preds = %42
  %44 = load ptr, ptr %3, align 8
  %45 = load i32, ptr %4, align 4
  %46 = insertvalue { ptr, i32 } poison, ptr %44, 0
  %47 = insertvalue { ptr, i32 } %46, i32 %45, 1
  resume { ptr, i32 } %47
}