; Function Attrs: mustprogress uwtable
define void @_ZN11ComprDataIOC2Ev(ptr noundef nonnull align 8 dereferenceable(266) %0) unnamed_addr #0 align 2 personality ptr @__gxx_personality_v0 {
  %2 = getelementptr inbounds nuw i8, ptr %0, i64 216
  tail call void @_ZN8DataHashC1Ev(ptr noundef nonnull align 8 dereferenceable(16) %2)
  %3 = getelementptr inbounds nuw i8, ptr %0, i64 232
  invoke void @_ZN8DataHashC1Ev(ptr noundef nonnull align 8 dereferenceable(16) %3)
          to label %4 unwind label %33

4:                                                ; preds = %1
  %5 = getelementptr inbounds nuw i8, ptr %0, i64 248
  invoke void @_ZN8DataHashC1Ev(ptr noundef nonnull align 8 dereferenceable(16) %5)
          to label %6 unwind label %35

6:                                                ; preds = %4
  %7 = invoke noalias noundef nonnull dereferenceable(2520) ptr @_Znwm(i64 noundef 2520) #14
          to label %8 unwind label %37

8:                                                ; preds = %6
  invoke void @_ZN9CryptDataC1Ev(ptr noundef nonnull align 8 dereferenceable(2516) %7)
          to label %9 unwind label %39

9:                                                ; preds = %8
  %10 = getelementptr inbounds nuw i8, ptr %0, i64 128
  store ptr %7, ptr %10, align 8
  %11 = invoke noalias noundef nonnull dereferenceable(2520) ptr @_Znwm(i64 noundef 2520) #14
          to label %12 unwind label %37

12:                                               ; preds = %9
  invoke void @_ZN9CryptDataC1Ev(ptr noundef nonnull align 8 dereferenceable(2516) %11)
          to label %13 unwind label %41

13:                                               ; preds = %12
  %14 = getelementptr inbounds nuw i8, ptr %0, i64 136
  store ptr %11, ptr %14, align 8
  store i8 0, ptr %0, align 8
  %15 = getelementptr inbounds nuw i8, ptr %0, i64 24
  store i8 0, ptr %15, align 8
  %16 = getelementptr inbounds nuw i8, ptr %0, i64 64
  %17 = getelementptr inbounds nuw i8, ptr %0, i64 80
  tail call void @llvm.memset.p0.i64(ptr noundef nonnull align 8 dereferenceable(16) %16, i8 0, i64 16, i1 false)
  store i8 1, ptr %17, align 8
  %18 = getelementptr inbounds nuw i8, ptr %0, i64 81
  store i8 0, ptr %18, align 1
  %19 = getelementptr inbounds nuw i8, ptr %0, i64 82
  store i8 0, ptr %19, align 2
  %20 = getelementptr inbounds nuw i8, ptr %0, i64 83
  store i8 0, ptr %20, align 1
  %21 = getelementptr inbounds nuw i8, ptr %0, i64 152
  store i8 0, ptr %21, align 8
  %22 = getelementptr inbounds nuw i8, ptr %0, i64 153
  store i8 0, ptr %22, align 1
  %23 = getelementptr inbounds nuw i8, ptr %0, i64 154
  store i8 0, ptr %23, align 2
  %24 = getelementptr inbounds nuw i8, ptr %0, i64 88
  %25 = getelementptr inbounds nuw i8, ptr %0, i64 48
  %26 = getelementptr inbounds nuw i8, ptr %0, i64 264
  store i8 0, ptr %26, align 8
  %27 = getelementptr inbounds nuw i8, ptr %0, i64 265
  store i8 0, ptr %27, align 1
  %28 = getelementptr inbounds nuw i8, ptr %0, i64 160
  %29 = getelementptr inbounds nuw i8, ptr %0, i64 144
  tail call void @llvm.memset.p0.i64(ptr noundef nonnull align 8 dereferenceable(16) %25, i8 0, i64 16, i1 false)
  tail call void @llvm.memset.p0.i64(ptr noundef nonnull align 8 dereferenceable(24) %24, i8 0, i64 24, i1 false)
  tail call void @llvm.memset.p0.i64(ptr noundef nonnull align 8 dereferenceable(32) %28, i8 0, i64 32, i1 false)
  store i32 -1, ptr %29, align 8
  %30 = getelementptr inbounds nuw i8, ptr %0, i64 112
  %31 = getelementptr inbounds nuw i8, ptr %0, i64 148
  store i32 0, ptr %31, align 4
  %32 = getelementptr inbounds nuw i8, ptr %0, i64 192
  tail call void @llvm.memset.p0.i64(ptr noundef nonnull align 8 dereferenceable(16) %30, i8 0, i64 16, i1 false)
  tail call void @llvm.memset.p0.i64(ptr noundef nonnull align 8 dereferenceable(24) %32, i8 0, i64 24, i1 false)
  ret void

33:                                               ; preds = %1
  %34 = landingpad { ptr, i32 }
          cleanup
  br label %45

35:                                               ; preds = %4
  %36 = landingpad { ptr, i32 }
          cleanup
  br label %44

37:                                               ; preds = %9, %6
  %38 = landingpad { ptr, i32 }
          cleanup
  br label %43

39:                                               ; preds = %8
  %40 = landingpad { ptr, i32 }
          cleanup
  tail call void @_ZdlPv(ptr noundef nonnull %7) #15
  br label %43

41:                                               ; preds = %12
  %42 = landingpad { ptr, i32 }
          cleanup
  tail call void @_ZdlPv(ptr noundef nonnull %11) #15
  br label %43

43:                                               ; preds = %41, %39, %37
  %.pn = phi { ptr, i32 } [ %42, %41 ], [ %38, %37 ], [ %40, %39 ]
  tail call void @_ZN8DataHashD1Ev(ptr noundef nonnull align 8 dereferenceable(16) %5) #16
  br label %44

44:                                               ; preds = %43, %35
  %.pn.pn = phi { ptr, i32 } [ %.pn, %43 ], [ %36, %35 ]
  tail call void @_ZN8DataHashD1Ev(ptr noundef nonnull align 8 dereferenceable(16) %3) #16
  br label %45

45:                                               ; preds = %44, %33
  %.pn.pn.pn = phi { ptr, i32 } [ %.pn.pn, %44 ], [ %34, %33 ]
  tail call void @_ZN8DataHashD1Ev(ptr noundef nonnull align 8 dereferenceable(16) %2) #16
  resume { ptr, i32 } %.pn.pn.pn
}